target datalayout = "e-m:e-p270:32:32-p271:32:32-p272:64:64-i64:64-i128:128-f80:128-n8:16:32:64-S128"
target triple = "x86_64-pc-linux-gnu"

%"class.std::__cxx11::basic_string" = type { %"struct.std::__cxx11::basic_string<char>::_Alloc_hider", i64, %union.anon }
%"struct.std::__cxx11::basic_string<char>::_Alloc_hider" = type { ptr }
%union.anon = type { i64, [8 x i8] }
%"class.__gnu_cxx::__normal_iterator" = type { ptr }
%"struct.jsonnet::internal::FodderElement" = type { i32, i32, i32, %"class.std::vector.14" }
%"class.std::vector.14" = type { %"struct.std::_Vector_base.15" }
%"struct.std::_Vector_base.15" = type { %"struct.std::_Vector_base<std::__cxx11::basic_string<char>, std::allocator<std::__cxx11::basic_string<char>>>::_Vector_impl" }
%"struct.std::_Vector_base<std::__cxx11::basic_string<char>, std::allocator<std::__cxx11::basic_string<char>>>::_Vector_impl" = type { %"struct.std::_Vector_base<std::__cxx11::basic_string<char>, std::allocator<std::__cxx11::basic_string<char>>>::_Vector_impl_data" }
%"struct.std::_Vector_base<std::__cxx11::basic_string<char>, std::allocator<std::__cxx11::basic_string<char>>>::_Vector_impl_data" = type { ptr, ptr, ptr }
%"struct.std::_Vector_base" = type { %"struct.std::_Vector_base<jsonnet::internal::FodderElement, std::allocator<jsonnet::internal::FodderElement>>::_Vector_impl" }
%"struct.std::_Vector_base<jsonnet::internal::FodderElement, std::allocator<jsonnet::internal::FodderElement>>::_Vector_impl" = type { %"struct.std::_Vector_base<jsonnet::internal::FodderElement, std::allocator<jsonnet::internal::FodderElement>>::_Vector_impl_data" }
%"struct.std::_Vector_base<jsonnet::internal::FodderElement, std::allocator<jsonnet::internal::FodderElement>>::_Vector_impl_data" = type { ptr, ptr, ptr }
%"class.__gnu_cxx::__normal_iterator.23" = type { ptr }
%"struct.jsonnet::internal::AST" = type { ptr, %"struct.jsonnet::internal::LocationRange", i32, %"class.std::vector", %"class.std::vector.59" }
%"struct.jsonnet::internal::LocationRange" = type { %"class.std::__cxx11::basic_string", %"struct.jsonnet::internal::Location", %"struct.jsonnet::internal::Location" }
%"struct.jsonnet::internal::Location" = type { i64, i64 }
%"class.std::vector" = type { %"struct.std::_Vector_base" }
%"class.std::vector.59" = type { %"struct.std::_Vector_base.60" }
%"struct.std::_Vector_base.60" = type { %"struct.std::_Vector_base<const jsonnet::internal::Identifier *, std::allocator<const jsonnet::internal::Identifier *>>::_Vector_impl" }
%"struct.std::_Vector_base<const jsonnet::internal::Identifier *, std::allocator<const jsonnet::internal::Identifier *>>::_Vector_impl" = type { %"struct.std::_Vector_base<const jsonnet::internal::Identifier *, std::allocator<const jsonnet::internal::Identifier *>>::_Vector_impl_data" }
%"struct.std::_Vector_base<const jsonnet::internal::Identifier *, std::allocator<const jsonnet::internal::Identifier *>>::_Vector_impl_data" = type { ptr, ptr, ptr }

; Function Attrs: mustprogress nounwind uwtable
define linkonce_odr noundef nonnull align 8 dereferenceable(8) ptr @_ZNK9__gnu_cxx17__normal_iteratorIPKN7jsonnet8internal13FodderElementESt6vectorIS3_SaIS3_EEE4baseEv(ptr noundef nonnull align 8 dereferenceable(8) %0) #5 comdat align 2 {
  %2 = alloca ptr, align 8
  store ptr %0, ptr %2, align 8, !tbaa !46
  %3 = load ptr, ptr %2, align 8
  %4 = getelementptr inbounds nuw %"class.__gnu_cxx::__normal_iterator", ptr %3, i32 0, i32 0
  ret ptr %4
}

; Function Attrs: mustprogress nounwind uwtable
define linkonce_odr void @_ZN9__gnu_cxx17__normal_iteratorIPKN7jsonnet8internal13FodderElementESt6vectorIS3_SaIS3_EEEC2ERKS5_(ptr noundef nonnull align 8 dereferenceable(8) %0, ptr noundef nonnull align 8 dereferenceable(8) %1) unnamed_addr #5 comdat align 2 {
  %3 = alloca ptr, align 8
  %4 = alloca ptr, align 8
  store ptr %0, ptr %3, align 8, !tbaa !46
  store ptr %1, ptr %4, align 8, !tbaa !602
  %5 = load ptr, ptr %3, align 8
  %6 = getelementptr inbounds nuw %"class.__gnu_cxx::__normal_iterator", ptr %5, i32 0, i32 0
  %7 = load ptr, ptr %4, align 8, !tbaa !602
  %8 = load ptr, ptr %7, align 8, !tbaa !29
  store ptr %8, ptr %6, align 8, !tbaa !48
  ret void
}

; Function Attrs: mustprogress nounwind uwtable
define linkonce_odr ptr @_ZNK9__gnu_cxx17__normal_iteratorIPN7jsonnet8internal13FodderElementESt6vectorIS3_SaIS3_EEEplEl(ptr noundef nonnull align 8 dereferenceable(8) %0, i64 noundef %1) #5 comdat align 2 {
  %3 = alloca %"class.__gnu_cxx::__normal_iterator.23", align 8
  %4 = alloca ptr, align 8
  %5 = alloca i64, align 8
  %6 = alloca ptr, align 8
  store ptr %0, ptr %4, align 8, !tbaa !75
  store i64 %1, ptr %5, align 8, !tbaa !27
  %7 = load ptr, ptr %4, align 8
  call void @llvm.lifetime.start.p0(i64 8, ptr %6) #3
  %8 = getelementptr inbounds nuw %"class.__gnu_cxx::__normal_iterator.23", ptr %7, i32 0, i32 0
  %9 = load ptr, ptr %8, align 8, !tbaa !623
  %10 = load i64, ptr %5, align 8, !tbaa !27
  %11 = getelementptr inbounds %"struct.jsonnet::internal::FodderElement", ptr %9, i64 %10
  store ptr %11, ptr %6, align 8, !tbaa !29
  call void @_ZN9__gnu_cxx17__normal_iteratorIPN7jsonnet8internal13FodderElementESt6vectorIS3_SaIS3_EEEC2ERKS4_(ptr noundef nonnull align 8 dereferenceable(8) %3, ptr noundef nonnull align 8 dereferenceable(8) %6) #3
  call void @llvm.lifetime.end.p0(i64 8, ptr %6) #3
  %12 = getelementptr inbounds nuw %"class.__gnu_cxx::__normal_iterator.23", ptr %3, i32 0, i32 0
  %13 = load ptr, ptr %12, align 8
  ret ptr %13
}

; Function Attrs: inlinehint mustprogress nounwind uwtable
define linkonce_odr noundef i64 @_ZN9__gnu_cxxmiIPKN7jsonnet8internal13FodderElementESt6vectorIS3_SaIS3_EEEENS_17__normal_iteratorIT_T0_E15difference_typeERKSC_SF_(ptr noundef nonnull align 8 dereferenceable(8) %0, ptr noundef nonnull align 8 dereferenceable(8) %1) #7 comdat {
  %3 = alloca ptr, align 8
  %4 = alloca ptr, align 8
  store ptr %0, ptr %3, align 8, !tbaa !46
  store ptr %1, ptr %4, align 8, !tbaa !46
  %5 = load ptr, ptr %3, align 8, !tbaa !46
  %6 = call noundef nonnull align 8 dereferenceable(8) ptr @_ZNK9__gnu_cxx17__normal_iteratorIPKN7jsonnet8internal13FodderElementESt6vectorIS3_SaIS3_EEE4baseEv(ptr noundef nonnull align 8 dereferenceable(8) %5) #3
  %7 = load ptr, ptr %6, align 8, !tbaa !29
  %8 = load ptr, ptr %4, align 8, !tbaa !46
  %9 = call noundef nonnull align 8 dereferenceable(8) ptr @_ZNK9__gnu_cxx17__normal_iteratorIPKN7jsonnet8internal13FodderElementESt6vectorIS3_SaIS3_EEE4baseEv(ptr noundef nonnull align 8 dereferenceable(8) %8) #3
  %10 = load ptr, ptr %9, align 8, !tbaa !29
  %11 = ptrtoint ptr %7 to i64
  %12 = ptrtoint ptr %10 to i64
  %13 = sub i64 %11, %12
  %14 = sdiv exact i64 %13, 40
  ret i64 %14
}

; Function Attrs: mustprogress nounwind uwtable
define linkonce_odr ptr @_ZNKSt6vectorIN7jsonnet8internal13FodderElementESaIS2_EE6cbeginEv(ptr noundef nonnull align 8 dereferenceable(24) %0) #5 comdat align 2 {
  %2 = alloca %"class.__gnu_cxx::__normal_iterator", align 8
  %3 = alloca ptr, align 8
  store ptr %0, ptr %3, align 8, !tbaa !23
  %4 = load ptr, ptr %3, align 8
  %5 = getelementptr inbounds nuw %"struct.std::_Vector_base", ptr %4, i32 0, i32 0
  %6 = getelementptr inbounds nuw %"struct.std::_Vector_base<jsonnet::internal::FodderElement, std::allocator<jsonnet::internal::FodderElement>>::_Vector_impl_data", ptr %5, i32 0, i32 0
  call void @_ZN9__gnu_cxx17__normal_iteratorIPKN7jsonnet8internal13FodderElementESt6vectorIS3_SaIS3_EEEC2ERKS5_(ptr noundef nonnull align 8 dereferenceable(8) %2, ptr noundef nonnull align 8 dereferenceable(8) %6) #3
  %7 = getelementptr inbounds nuw %"class.__gnu_cxx::__normal_iterator", ptr %2, i32 0, i32 0
  %8 = load ptr, ptr %7, align 8
  ret ptr %8
}

; Function Attrs: mustprogress nounwind uwtable
define linkonce_odr noundef nonnull align 8 dereferenceable(8) ptr @_ZNK9__gnu_cxx17__normal_iteratorIPN7jsonnet8internal13FodderElementESt6vectorIS3_SaIS3_EEE4baseEv(ptr noundef nonnull align 8 dereferenceable(8) %0) #5 comdat align 2 {
  %2 = alloca ptr, align 8
  store ptr %0, ptr %2, align 8, !tbaa !75
  %3 = load ptr, ptr %2, align 8
  %4 = getelementptr inbounds nuw %"class.__gnu_cxx::__normal_iterator.23", ptr %3, i32 0, i32 0
  ret ptr %4
}

; Function Attrs: mustprogress nounwind uwtable
define linkonce_odr void @_ZN9__gnu_cxx17__normal_iteratorIPN7jsonnet8internal13FodderElementESt6vectorIS3_SaIS3_EEEC2ERKS4_(ptr noundef nonnull align 8 dereferenceable(8) %0, ptr noundef nonnull align 8 dereferenceable(8) %1) unnamed_addr #5 comdat align 2 {
  %3 = alloca ptr, align 8
  %4 = alloca ptr, align 8
  store ptr %0, ptr %3, align 8, !tbaa !75
  store ptr %1, ptr %4, align 8, !tbaa !602
  %5 = load ptr, ptr %3, align 8
  %6 = getelementptr inbounds nuw %"class.__gnu_cxx::__normal_iterator.23", ptr %5, i32 0, i32 0
  %7 = load ptr, ptr %4, align 8, !tbaa !602
  %8 = load ptr, ptr %7, align 8, !tbaa !29
  store ptr %8, ptr %6, align 8, !tbaa !623
  ret void
}

; Function Attrs: mustprogress uwtable
define internal noundef ptr @_ZN7jsonnet8internalL19left_recursive_deepEPNS0_3ASTE(ptr noundef %0) #4 {
  %2 = alloca ptr, align 8
  %3 = alloca ptr, align 8
  %4 = alloca ptr, align 8
  store ptr %0, ptr %2, align 8, !tbaa !71
  call void @llvm.lifetime.start.p0(i64 8, ptr %3) #3
  %5 = load ptr, ptr %2, align 8, !tbaa !71
  store ptr %5, ptr %3, align 8, !tbaa !71
  call void @llvm.lifetime.start.p0(i64 8, ptr %4) #3
  %6 = load ptr, ptr %2, align 8, !tbaa !71
  %7 = call noundef ptr @_ZN7jsonnet8internalL14left_recursiveEPNS0_3ASTE(ptr noundef %6)
  store ptr %7, ptr %4, align 8, !tbaa !71
  br label %8

8:                                                ; preds = %11, %1
  %9 = load ptr, ptr %4, align 8, !tbaa !71
  %10 = icmp ne ptr %9, null
  br i1 %10, label %11, label %15

11:                                               ; preds = %8
  %12 = load ptr, ptr %4, align 8, !tbaa !71
  store ptr %12, ptr %3, align 8, !tbaa !71
  %13 = load ptr, ptr %3, align 8, !tbaa !71
  %14 = call noundef ptr @_ZN7jsonnet8internalL14left_recursiveEPNS0_3ASTE(ptr noundef %13)
  store ptr %14, ptr %4, align 8, !tbaa !71
  br label %8, !llvm.loop !519

15:                                               ; preds = %8
  %16 = load ptr, ptr %3, align 8, !tbaa !71
  call void @llvm.lifetime.end.p0(i64 8, ptr %4) #3
  call void @llvm.lifetime.end.p0(i64 8, ptr %3) #3
  ret ptr %16
}

; Function Attrs: mustprogress uwtable
define linkonce_odr ptr @_ZNSt6vectorIN7jsonnet8internal13FodderElementESaIS2_EE5eraseEN9__gnu_cxx17__normal_iteratorIPKS2_S4_EE(ptr noundef nonnull align 8 dereferenceable(24) %0, ptr %1) #4 comdat align 2 {
  %3 = alloca %"class.__gnu_cxx::__normal_iterator.23", align 8
  %4 = alloca %"class.__gnu_cxx::__normal_iterator", align 8
  %5 = alloca ptr, align 8
  %6 = alloca %"class.__gnu_cxx::__normal_iterator.23", align 8
  %7 = alloca %"class.__gnu_cxx::__normal_iterator.23", align 8
  %8 = alloca %"class.__gnu_cxx::__normal_iterator", align 8
  %9 = getelementptr inbounds nuw %"class.__gnu_cxx::__normal_iterator", ptr %4, i32 0, i32 0
  store ptr %1, ptr %9, align 8
  store ptr %0, ptr %5, align 8, !tbaa !23
  %10 = load ptr, ptr %5, align 8
  call void @llvm.lifetime.start.p0(i64 8, ptr %7) #3
  %11 = call ptr @_ZNSt6vectorIN7jsonnet8internal13FodderElementESaIS2_EE5beginEv(ptr noundef nonnull align 8 dereferenceable(24) %10) #3
  %12 = getelementptr inbounds nuw %"class.__gnu_cxx::__normal_iterator.23", ptr %7, i32 0, i32 0
  store ptr %11, ptr %12, align 8
  call void @llvm.lifetime.start.p0(i64 8, ptr %8) #3
  %13 = call ptr @_ZNKSt6vectorIN7jsonnet8internal13FodderElementESaIS2_EE6cbeginEv(ptr noundef nonnull align 8 dereferenceable(24) %10) #3
  %14 = getelementptr inbounds nuw %"class.__gnu_cxx::__normal_iterator", ptr %8, i32 0, i32 0
  store ptr %13, ptr %14, align 8
  %15 = call noundef i64 @_ZN9__gnu_cxxmiIPKN7jsonnet8internal13FodderElementESt6vectorIS3_SaIS3_EEEENS_17__normal_iteratorIT_T0_E15difference_typeERKSC_SF_(ptr noundef nonnull align 8 dereferenceable(8) %4, ptr noundef nonnull align 8 dereferenceable(8) %8) #3
  %16 = call ptr @_ZNK9__gnu_cxx17__normal_iteratorIPN7jsonnet8internal13FodderElementESt6vectorIS3_SaIS3_EEEplEl(ptr noundef nonnull align 8 dereferenceable(8) %7, i64 noundef %15) #3
  %17 = getelementptr inbounds nuw %"class.__gnu_cxx::__normal_iterator.23", ptr %6, i32 0, i32 0
  store ptr %16, ptr %17, align 8
  %18 = getelementptr inbounds nuw %"class.__gnu_cxx::__normal_iterator.23", ptr %6, i32 0, i32 0
  %19 = load ptr, ptr %18, align 8
  %20 = call ptr @_ZNSt6vectorIN7jsonnet8internal13FodderElementESaIS2_EE8_M_eraseEN9__gnu_cxx17__normal_iteratorIPS2_S4_EE(ptr noundef nonnull align 8 dereferenceable(24) %10, ptr %19)
  %21 = getelementptr inbounds nuw %"class.__gnu_cxx::__normal_iterator.23", ptr %3, i32 0, i32 0
  store ptr %20, ptr %21, align 8
  call void @llvm.lifetime.end.p0(i64 8, ptr %8) #3
  call void @llvm.lifetime.end.p0(i64 8, ptr %7) #3
  %22 = getelementptr inbounds nuw %"class.__gnu_cxx::__normal_iterator.23", ptr %3, i32 0, i32 0
  %23 = load ptr, ptr %22, align 8
  ret ptr %23
}

; Function Attrs: mustprogress nounwind uwtable
define linkonce_odr void @_ZN9__gnu_cxx17__normal_iteratorIPKN7jsonnet8internal13FodderElementESt6vectorIS3_SaIS3_EEEC2IPS3_vEERKNS0_IT_S8_EE(ptr noundef nonnull align 8 dereferenceable(8) %0, ptr noundef nonnull align 8 dereferenceable(8) %1) unnamed_addr #5 comdat align 2 {
  %3 = alloca ptr, align 8
  %4 = alloca ptr, align 8
  store ptr %0, ptr %3, align 8, !tbaa !46
  store ptr %1, ptr %4, align 8, !tbaa !75
  %5 = load ptr, ptr %3, align 8
  %6 = getelementptr inbounds nuw %"class.__gnu_cxx::__normal_iterator", ptr %5, i32 0, i32 0
  %7 = load ptr, ptr %4, align 8, !tbaa !75
  %8 = call noundef nonnull align 8 dereferenceable(8) ptr @_ZNK9__gnu_cxx17__normal_iteratorIPN7jsonnet8internal13FodderElementESt6vectorIS3_SaIS3_EEE4baseEv(ptr noundef nonnull align 8 dereferenceable(8) %7) #3
  %9 = load ptr, ptr %8, align 8, !tbaa !29
  store ptr %9, ptr %6, align 8, !tbaa !48
  ret void
}

; Function Attrs: mustprogress nounwind uwtable
define linkonce_odr ptr @_ZNSt6vectorIN7jsonnet8internal13FodderElementESaIS2_EE5beginEv(ptr noundef nonnull align 8 dereferenceable(24) %0) #5 comdat align 2 {
  %2 = alloca %"class.__gnu_cxx::__normal_iterator.23", align 8
  %3 = alloca ptr, align 8
  store ptr %0, ptr %3, align 8, !tbaa !23
  %4 = load ptr, ptr %3, align 8
  %5 = getelementptr inbounds nuw %"struct.std::_Vector_base", ptr %4, i32 0, i32 0
  %6 = getelementptr inbounds nuw %"struct.std::_Vector_base<jsonnet::internal::FodderElement, std::allocator<jsonnet::internal::FodderElement>>::_Vector_impl_data", ptr %5, i32 0, i32 0
  call void @_ZN9__gnu_cxx17__normal_iteratorIPN7jsonnet8internal13FodderElementESt6vectorIS3_SaIS3_EEEC2ERKS4_(ptr noundef nonnull align 8 dereferenceable(8) %2, ptr noundef nonnull align 8 dereferenceable(8) %6) #3
  %7 = getelementptr inbounds nuw %"class.__gnu_cxx::__normal_iterator.23", ptr %2, i32 0, i32 0
  %8 = load ptr, ptr %7, align 8
  ret ptr %8
}

; Function Attrs: mustprogress nounwind uwtable
define linkonce_odr noundef nonnull align 8 dereferenceable(40) ptr @_ZNSt6vectorIN7jsonnet8internal13FodderElementESaIS2_EEixEm(ptr noundef nonnull align 8 dereferenceable(24) %0, i64 noundef %1) #5 comdat align 2 {
  %3 = alloca ptr, align 8
  %4 = alloca i64, align 8
  store ptr %0, ptr %3, align 8, !tbaa !23
  store i64 %1, ptr %4, align 8, !tbaa !27
  %5 = load ptr, ptr %3, align 8
  %6 = getelementptr inbounds nuw %"struct.std::_Vector_base", ptr %5, i32 0, i32 0
  %7 = getelementptr inbounds nuw %"struct.std::_Vector_base<jsonnet::internal::FodderElement, std::allocator<jsonnet::internal::FodderElement>>::_Vector_impl_data", ptr %6, i32 0, i32 0
  %8 = load ptr, ptr %7, align 8, !tbaa !52
  %9 = load i64, ptr %4, align 8, !tbaa !27
  %10 = getelementptr inbounds nuw %"struct.jsonnet::internal::FodderElement", ptr %8, i64 %9
  ret ptr %10
}

; Function Attrs: mustprogress nounwind uwtable
define linkonce_odr noundef i64 @_ZNKSt6vectorIN7jsonnet8internal13FodderElementESaIS2_EE4sizeEv(ptr noundef nonnull align 8 dereferenceable(24) %0) #5 comdat align 2 {
  %2 = alloca ptr, align 8
  store ptr %0, ptr %2, align 8, !tbaa !23
  %3 = load ptr, ptr %2, align 8
  %4 = getelementptr inbounds nuw %"struct.std::_Vector_base", ptr %3, i32 0, i32 0
  %5 = getelementptr inbounds nuw %"struct.std::_Vector_base<jsonnet::internal::FodderElement, std::allocator<jsonnet::internal::FodderElement>>::_Vector_impl_data", ptr %4, i32 0, i32 1
  %6 = load ptr, ptr %5, align 8, !tbaa !50
  %7 = getelementptr inbounds nuw %"struct.std::_Vector_base", ptr %3, i32 0, i32 0
  %8 = getelementptr inbounds nuw %"struct.std::_Vector_base<jsonnet::internal::FodderElement, std::allocator<jsonnet::internal::FodderElement>>::_Vector_impl_data", ptr %7, i32 0, i32 0
  %9 = load ptr, ptr %8, align 8, !tbaa !52
  %10 = ptrtoint ptr %6 to i64
  %11 = ptrtoint ptr %9 to i64
  %12 = sub i64 %10, %11
  %13 = sdiv exact i64 %12, 40
  ret i64 %13
}

; Function Attrs: mustprogress uwtable
define internal noundef nonnull align 8 dereferenceable(24) ptr @_ZN7jsonnet8internalL11open_fodderEPNS0_3ASTE(ptr noundef %0) #4 {
  %2 = alloca ptr, align 8
  store ptr %0, ptr %2, align 8, !tbaa !71
  %3 = load ptr, ptr %2, align 8, !tbaa !71
  %4 = call noundef ptr @_ZN7jsonnet8internalL19left_recursive_deepEPNS0_3ASTE(ptr noundef %3)
  %5 = getelementptr inbounds nuw %"struct.jsonnet::internal::AST", ptr %4, i32 0, i32 3
  ret ptr %5
}

; Function Attrs: mustprogress uwtable
define void @_ZN7jsonnet8internal23remove_initial_newlinesEPNS0_3ASTE(ptr noundef %0) #4 {
  %2 = alloca ptr, align 8
  %3 = alloca ptr, align 8
  %4 = alloca %"class.__gnu_cxx::__normal_iterator", align 8
  %5 = alloca %"class.__gnu_cxx::__normal_iterator.23", align 8
  %6 = alloca %"class.__gnu_cxx::__normal_iterator.23", align 8
  store ptr %0, ptr %2, align 8, !tbaa !71
  call void @llvm.lifetime.start.p0(i64 8, ptr %3) #3
  %7 = load ptr, ptr %2, align 8, !tbaa !71
  %8 = call noundef nonnull align 8 dereferenceable(24) ptr @_ZN7jsonnet8internalL11open_fodderEPNS0_3ASTE(ptr noundef %7)
  store ptr %8, ptr %3, align 8, !tbaa !23
  br label %9

9:                                                ; preds = %21, %1
  %10 = load ptr, ptr %3, align 8, !tbaa !23
  %11 = call noundef i64 @_ZNKSt6vectorIN7jsonnet8internal13FodderElementESaIS2_EE4sizeEv(ptr noundef nonnull align 8 dereferenceable(24) %10) #3
  %12 = icmp ugt i64 %11, 0
  br i1 %12, label %13, label %19

13:                                               ; preds = %9
  %14 = load ptr, ptr %3, align 8, !tbaa !23
  %15 = call noundef nonnull align 8 dereferenceable(40) ptr @_ZNSt6vectorIN7jsonnet8internal13FodderElementESaIS2_EEixEm(ptr noundef nonnull align 8 dereferenceable(24) %14, i64 noundef 0) #3
  %16 = getelementptr inbounds nuw %"struct.jsonnet::internal::FodderElement", ptr %15, i32 0, i32 0
  %17 = load i32, ptr %16, align 8, !tbaa !33
  %18 = icmp eq i32 %17, 0
  br label %19

19:                                               ; preds = %13, %9
  %20 = phi i1 [ false, %9 ], [ %18, %13 ]
  br i1 %20, label %21, label %30

21:                                               ; preds = %19
  %22 = load ptr, ptr %3, align 8, !tbaa !23
  call void @llvm.lifetime.start.p0(i64 8, ptr %5) #3
  %23 = load ptr, ptr %3, align 8, !tbaa !23
  %24 = call ptr @_ZNSt6vectorIN7jsonnet8internal13FodderElementESaIS2_EE5beginEv(ptr noundef nonnull align 8 dereferenceable(24) %23) #3
  %25 = getelementptr inbounds nuw %"class.__gnu_cxx::__normal_iterator.23", ptr %5, i32 0, i32 0
  store ptr %24, ptr %25, align 8
  call void @_ZN9__gnu_cxx17__normal_iteratorIPKN7jsonnet8internal13FodderElementESt6vectorIS3_SaIS3_EEEC2IPS3_vEERKNS0_IT_S8_EE(ptr noundef nonnull align 8 dereferenceable(8) %4, ptr noundef nonnull align 8 dereferenceable(8) %5) #3
  %26 = getelementptr inbounds nuw %"class.__gnu_cxx::__normal_iterator", ptr %4, i32 0, i32 0
  %27 = load ptr, ptr %26, align 8
  %28 = call ptr @_ZNSt6vectorIN7jsonnet8internal13FodderElementESaIS2_EE5eraseEN9__gnu_cxx17__normal_iteratorIPKS2_S4_EE(ptr noundef nonnull align 8 dereferenceable(24) %22, ptr %27)
  %29 = getelementptr inbounds nuw %"class.__gnu_cxx::__normal_iterator.23", ptr %6, i32 0, i32 0
  store ptr %28, ptr %29, align 8
  call void @llvm.lifetime.end.p0(i64 8, ptr %5) #3
  br label %9, !llvm.loop !73

30:                                               ; preds = %19
  call void @llvm.lifetime.end.p0(i64 8, ptr %3) #3
  ret void
}