; Function Attrs: mustprogress uwtable
define void @_ZN7jsonnet8internal23remove_initial_newlinesEPNS0_3ASTE(ptr noundef %0) local_unnamed_addr #4 {
  %2 = tail call fastcc noundef ptr @_ZN7jsonnet8internalL14left_recursiveEPNS0_3ASTE(ptr noundef readonly %0)
  %.not7.i.i = icmp eq ptr %2, null
  br i1 %.not7.i.i, label %_ZN7jsonnet8internalL11open_fodderEPNS0_3ASTE.exit, label %.lr.ph.i.i

.lr.ph.i.i:                                       ; preds = %1, %.lr.ph.i.i
  %.08.i.i = phi ptr [ %3, %.lr.ph.i.i ], [ %2, %1 ]
  %3 = tail call fastcc noundef ptr @_ZN7jsonnet8internalL14left_recursiveEPNS0_3ASTE(ptr noundef nonnull %.08.i.i)
  %.not.i.i = icmp eq ptr %3, null
  br i1 %.not.i.i, label %_ZN7jsonnet8internalL11open_fodderEPNS0_3ASTE.exit, label %.lr.ph.i.i, !llvm.loop !52

_ZN7jsonnet8internalL11open_fodderEPNS0_3ASTE.exit: ; preds = %.lr.ph.i.i, %1
  %.06.lcssa.i.i = phi ptr [ %0, %1 ], [ %.08.i.i, %.lr.ph.i.i ]
  %4 = getelementptr inbounds nuw i8, ptr %.06.lcssa.i.i, i64 80
  %5 = getelementptr inbounds nuw i8, ptr %.06.lcssa.i.i, i64 88
  %6 = load ptr, ptr %5, align 8, !tbaa !17
  %7 = load ptr, ptr %4, align 8, !tbaa !19
  %.not6 = icmp eq ptr %6, %7
  br i1 %.not6, label %.critedge, label %.lr.ph

.lr.ph:                                           ; preds = %_ZN7jsonnet8internalL11open_fodderEPNS0_3ASTE.exit, %11
  %8 = phi ptr [ %14, %11 ], [ %7, %_ZN7jsonnet8internalL11open_fodderEPNS0_3ASTE.exit ]
  %9 = load i32, ptr %8, align 8, !tbaa !20
  %10 = icmp eq i32 %9, 0
  br i1 %10, label %11, label %.critedge

11:                                               ; preds = %.lr.ph
  %12 = tail call ptr @_ZNSt6vectorIN7jsonnet8internal13FodderElementESaIS2_EE8_M_eraseEN9__gnu_cxx17__normal_iteratorIPS2_S4_EE(ptr noundef nonnull align 8 dereferenceable(24) %4, ptr nonnull %8)
  %13 = load ptr, ptr %5, align 8, !tbaa !17
  %14 = load ptr, ptr %4, align 8, !tbaa !19
  %.not = icmp eq ptr %13, %14
  br i1 %.not, label %.critedge, label %.lr.ph, !llvm.loop !54

.critedge:                                        ; preds = %.lr.ph, %11, %_ZN7jsonnet8internalL11open_fodderEPNS0_3ASTE.exit
  ret void
}